; Function Attrs: mustprogress nofree norecurse nosync nounwind willreturn memory(argmem: readwrite) uwtable
define internal noundef zeroext i1 @"_ZNSt17_Function_handlerIFvRKN3nix9StorePathERKNS0_14DerivedPathMapISt3setINSt7__cxx1112basic_stringIcSt11char_traitsIcESaIcEEESt4lessISB_ESaISB_EEE9ChildNodeEEZNS0_14DerivationGoal14inputsRealisedEvE3$_3E10_M_managerERSt9_Any_dataRKSO_St18_Manager_operation"(ptr nocapture noundef nonnull writeonly align 8 dereferenceable(16) %0, ptr noundef nonnull align 8 dereferenceable(16) %1, i32 noundef %2) #24 align 2 personality ptr @__gxx_personality_v0 {
  switch i32 %2, label %"_ZNSt14_Function_base13_Base_managerIZN3nix14DerivationGoal14inputsRealisedEvE3$_3E10_M_managerERSt9_Any_dataRKS5_St18_Manager_operation.exit" [
    i32 0, label %4
    i32 1, label %5
    i32 2, label %6
  ]

4:                                                ; preds = %3
  store ptr @"_ZTIZN3nix14DerivationGoal14inputsRealisedEvE3$_3", ptr %0, align 8
  br label %"_ZNSt14_Function_base13_Base_managerIZN3nix14DerivationGoal14inputsRealisedEvE3$_3E10_M_managerERSt9_Any_dataRKS5_St18_Manager_operation.exit"

5:                                                ; preds = %3
  store ptr %1, ptr %0, align 8
  br label %"_ZNSt14_Function_base13_Base_managerIZN3nix14DerivationGoal14inputsRealisedEvE3$_3E10_M_managerERSt9_Any_dataRKS5_St18_Manager_operation.exit"

6:                                                ; preds = %3
  tail call void @llvm.memcpy.p0.p0.i64(ptr noundef nonnull align 8 dereferenceable(16) %0, ptr noundef nonnull align 8 dereferenceable(16) %1, i64 16, i1 false)
  br label %"_ZNSt14_Function_base13_Base_managerIZN3nix14DerivationGoal14inputsRealisedEvE3$_3E10_M_managerERSt9_Any_dataRKS5_St18_Manager_operation.exit"

"_ZNSt14_Function_base13_Base_managerIZN3nix14DerivationGoal14inputsRealisedEvE3$_3E10_M_managerERSt9_Any_dataRKS5_St18_Manager_operation.exit": ; preds = %3, %6, %5, %4
  ret i1 false
}